target datalayout = "e-m:e-p270:32:32-p271:32:32-p272:64:64-i64:64-i128:128-f80:128-n8:16:32:64-S128"
target triple = "x86_64-pc-linux-gnu"

%struct.ident_t = type { i32, i32, i32, i32, ptr }

@1 = private unnamed_addr constant %struct.ident_t { i32 0, i32 514, i32 0, i32 22, ptr @0 }, align 8
@.gomp_critical_user_.reduction.var = common global [8 x i32] zeroinitializer, align 8
@2 = private unnamed_addr constant %struct.ident_t { i32 0, i32 18, i32 0, i32 22, ptr @0 }, align 8

; Function Attrs: alwaysinline norecurse nounwind ssp uwtable
define internal void @_ZN6open3d1t9pipelines6kernel8odometry35ComputeOdometryInformationMatrixCPUERKNS_4core6TensorES7_S7_S7_fRS5_.omp_outlined(ptr noalias noundef %0, ptr noalias noundef %1, ptr noundef nonnull align 8 dereferenceable(8) %2, ptr noundef nonnull align 8 dereferenceable(8) %3, ptr noundef nonnull align 4 dereferenceable(4) %4, ptr noundef nonnull align 8 dereferenceable(56) %5, ptr noundef nonnull align 8 dereferenceable(56) %6, ptr noundef nonnull align 4 dereferenceable(68) %7, ptr noundef %8) #5 personality ptr @__gxx_personality_v0 {
  %10 = alloca ptr, align 8
  %11 = alloca ptr, align 8
  %12 = alloca ptr, align 8
  %13 = alloca ptr, align 8
  %14 = alloca ptr, align 8
  %15 = alloca ptr, align 8
  %16 = alloca ptr, align 8
  %17 = alloca ptr, align 8
  %18 = alloca ptr, align 8
  %19 = alloca i32, align 4
  %20 = alloca i64, align 8
  %21 = alloca i32, align 4
  %22 = alloca i32, align 4
  %23 = alloca i32, align 4
  %24 = alloca i32, align 4
  %25 = alloca i32, align 4
  %26 = alloca i32, align 4
  %27 = alloca [21 x float], align 16
  %28 = alloca ptr, align 8
  %29 = alloca i32, align 4
  %30 = alloca i32, align 4
  %31 = alloca i32, align 4
  %32 = alloca [6 x float], align 16
  %33 = alloca [6 x float], align 16
  %34 = alloca [6 x float], align 16
  %35 = alloca float, align 4
  %36 = alloca float, align 4
  %37 = alloca float, align 4
  %38 = alloca i8, align 1
  %39 = alloca i32, align 4
  %40 = alloca i32, align 4
  %41 = alloca i32, align 4
  %42 = alloca i32, align 4
  %43 = alloca [1 x ptr], align 8
  store ptr %0, ptr %10, align 8, !tbaa !65
  store ptr %1, ptr %11, align 8, !tbaa !65
  store ptr %2, ptr %12, align 8, !tbaa !67
  store ptr %3, ptr %13, align 8, !tbaa !67
  store ptr %4, ptr %14, align 8, !tbaa !15
  store ptr %5, ptr %15, align 8, !tbaa !34
  store ptr %6, ptr %16, align 8, !tbaa !34
  store ptr %7, ptr %17, align 8, !tbaa !43
  store ptr %8, ptr %18, align 8, !tbaa !15
  %44 = load ptr, ptr %12, align 8, !tbaa !67
  %45 = load ptr, ptr %13, align 8, !tbaa !67
  %46 = load ptr, ptr %14, align 8, !tbaa !15
  %47 = load ptr, ptr %15, align 8, !tbaa !34
  %48 = load ptr, ptr %16, align 8, !tbaa !34
  %49 = load ptr, ptr %17, align 8, !tbaa !43
  call void @llvm.lifetime.start.p0(i64 4, ptr %19) #6
  call void @llvm.lifetime.start.p0(i64 8, ptr %20) #6
  %50 = load i64, ptr %44, align 8, !tbaa !11
  store i64 %50, ptr %20, align 8, !tbaa !11
  call void @llvm.lifetime.start.p0(i64 4, ptr %21) #6
  %51 = load i64, ptr %20, align 8, !tbaa !11
  %52 = sub nsw i64 %51, 0
  %53 = sdiv i64 %52, 1
  %54 = trunc i64 %53 to i32
  %55 = sub nsw i32 %54, 1
  store i32 %55, ptr %21, align 4, !tbaa !27
  call void @llvm.lifetime.start.p0(i64 4, ptr %22) #6
  store i32 0, ptr %22, align 4, !tbaa !27
  call void @llvm.lifetime.end.p0(i64 4, ptr %22) #6
  %56 = load i64, ptr %20, align 8, !tbaa !11
  %57 = icmp slt i64 0, %56
  br i1 %57, label %58, label %221

58:                                               ; preds = %9
  call void @llvm.lifetime.start.p0(i64 4, ptr %23) #6
  store i32 0, ptr %23, align 4, !tbaa !27
  call void @llvm.lifetime.start.p0(i64 4, ptr %24) #6
  %59 = load i32, ptr %21, align 4, !tbaa !27
  store i32 %59, ptr %24, align 4, !tbaa !27
  call void @llvm.lifetime.start.p0(i64 4, ptr %25) #6
  store i32 1, ptr %25, align 4, !tbaa !27
  call void @llvm.lifetime.start.p0(i64 4, ptr %26) #6
  store i32 0, ptr %26, align 4, !tbaa !27
  %60 = load ptr, ptr %18, align 8, !tbaa !15
  %61 = getelementptr inbounds nuw float, ptr %60, i64 0
  call void @llvm.lifetime.start.p0(i64 84, ptr %27) #6
  %62 = getelementptr inbounds [21 x float], ptr %27, i32 0, i32 0
  %63 = getelementptr float, ptr %62, i64 21
  %64 = icmp eq ptr %62, %63
  br i1 %64, label %69, label %65

65:                                               ; preds = %65, %58
  %66 = phi ptr [ %62, %58 ], [ %67, %65 ]
  store float 0.000000e+00, ptr %66, align 4, !tbaa !9
  %67 = getelementptr float, ptr %66, i32 1
  %68 = icmp eq ptr %67, %63
  br i1 %68, label %69, label %65

69:                                               ; preds = %65, %58
  %70 = load ptr, ptr %18, align 8
  %71 = ptrtoint ptr %70 to i64
  %72 = ptrtoint ptr %61 to i64
  %73 = sub i64 %71, %72
  %74 = sdiv exact i64 %73, ptrtoint (ptr getelementptr (float, ptr null, i32 1) to i64)
  %75 = getelementptr float, ptr %27, i64 %74
  store ptr %75, ptr %28, align 8
  call void @llvm.lifetime.start.p0(i64 4, ptr %29) #6
  %76 = load ptr, ptr %10, align 8
  %77 = load i32, ptr %76, align 4, !tbaa !27
  call void @__kmpc_for_static_init_4(ptr @1, i32 %77, i32 34, ptr %26, ptr %23, ptr %24, ptr %25, i32 1, i32 1)
  %78 = load i32, ptr %24, align 4, !tbaa !27
  %79 = load i32, ptr %21, align 4, !tbaa !27
  %80 = icmp sgt i32 %78, %79
  br i1 %80, label %81, label %83

81:                                               ; preds = %69
  %82 = load i32, ptr %21, align 4, !tbaa !27
  br label %85

83:                                               ; preds = %69
  %84 = load i32, ptr %24, align 4, !tbaa !27
  br label %85

85:                                               ; preds = %83, %81
  %86 = phi i32 [ %82, %81 ], [ %84, %83 ]
  store i32 %86, ptr %24, align 4, !tbaa !27
  %87 = load i32, ptr %23, align 4, !tbaa !27
  store i32 %87, ptr %19, align 4, !tbaa !27
  br label %88

88:                                               ; preds = %184, %85
  %89 = load i32, ptr %19, align 4, !tbaa !27
  %90 = load i32, ptr %24, align 4, !tbaa !27
  %91 = icmp sle i32 %89, %90
  br i1 %91, label %93, label %92

92:                                               ; preds = %88
  br label %187

93:                                               ; preds = %88
  %94 = load i32, ptr %19, align 4, !tbaa !27
  %95 = mul nsw i32 %94, 1
  %96 = add nsw i32 0, %95
  store i32 %96, ptr %29, align 4, !tbaa !27
  call void @llvm.lifetime.start.p0(i64 4, ptr %30) #6
  %97 = load i32, ptr %29, align 4, !tbaa !27
  %98 = sext i32 %97 to i64
  %99 = load i64, ptr %45, align 8, !tbaa !11
  %100 = sdiv i64 %98, %99
  %101 = trunc i64 %100 to i32
  store i32 %101, ptr %30, align 4, !tbaa !27
  call void @llvm.lifetime.start.p0(i64 4, ptr %31) #6
  %102 = load i32, ptr %29, align 4, !tbaa !27
  %103 = sext i32 %102 to i64
  %104 = load i64, ptr %45, align 8, !tbaa !11
  %105 = srem i64 %103, %104
  %106 = trunc i64 %105 to i32
  store i32 %106, ptr %31, align 4, !tbaa !27
  call void @llvm.lifetime.start.p0(i64 24, ptr %32) #6
  call void @llvm.lifetime.start.p0(i64 24, ptr %33) #6
  call void @llvm.lifetime.start.p0(i64 24, ptr %34) #6
  call void @llvm.lifetime.start.p0(i64 4, ptr %35) #6
  call void @llvm.lifetime.start.p0(i64 4, ptr %36) #6
  call void @llvm.lifetime.start.p0(i64 4, ptr %37) #6
  call void @llvm.lifetime.start.p0(i64 1, ptr %38) #6
  %107 = load i32, ptr %31, align 4, !tbaa !27
  %108 = load i32, ptr %30, align 4, !tbaa !27
  %109 = load float, ptr %46, align 4, !tbaa !9
  %110 = getelementptr inbounds [6 x float], ptr %32, i64 0, i64 0
  %111 = getelementptr inbounds [6 x float], ptr %33, i64 0, i64 0
  %112 = getelementptr inbounds [6 x float], ptr %34, i64 0, i64 0
  %113 = invoke noundef zeroext i1 @_ZN6open3d1t9pipelines6kernel8odometry23GetJacobianPointToPointEiifRKNS0_8geometry6kernel13TArrayIndexerIlEES9_RKNS5_16TransformIndexerEPfSD_SD_RfSE_SE_(i32 noundef %107, i32 noundef %108, float noundef %109, ptr noundef nonnull align 8 dereferenceable(56) %47, ptr noundef nonnull align 8 dereferenceable(56) %48, ptr noundef nonnull align 4 dereferenceable(68) %49, ptr noundef %110, ptr noundef %111, ptr noundef %112, ptr noundef nonnull align 4 dereferenceable(4) %35, ptr noundef nonnull align 4 dereferenceable(4) %36, ptr noundef nonnull align 4 dereferenceable(4) %37)
          to label %114 unwind label %222

114:                                              ; preds = %93
  %115 = zext i1 %113 to i8
  store i8 %115, ptr %38, align 1, !tbaa !68
  %116 = load i8, ptr %38, align 1, !tbaa !68, !range !70, !noundef !71
  %117 = trunc i8 %116 to i1
  br i1 %117, label %118, label %182

118:                                              ; preds = %114
  call void @llvm.lifetime.start.p0(i64 4, ptr %39) #6
  store i32 0, ptr %39, align 4, !tbaa !27
  call void @llvm.lifetime.start.p0(i64 4, ptr %40) #6
  store i32 0, ptr %40, align 4, !tbaa !27
  br label %119

119:                                              ; preds = %178, %118
  %120 = load i32, ptr %40, align 4, !tbaa !27
  %121 = icmp slt i32 %120, 6
  br i1 %121, label %123, label %122

122:                                              ; preds = %119
  store i32 6, ptr %41, align 4
  call void @llvm.lifetime.end.p0(i64 4, ptr %40) #6
  call void @llvm.lifetime.end.p0(i64 4, ptr %39) #6
  br label %181

123:                                              ; preds = %119
  call void @llvm.lifetime.start.p0(i64 4, ptr %42) #6
  store i32 0, ptr %42, align 4, !tbaa !27
  br label %124

124:                                              ; preds = %174, %123
  %125 = load i32, ptr %42, align 4, !tbaa !27
  %126 = load i32, ptr %40, align 4, !tbaa !27
  %127 = icmp sle i32 %125, %126
  br i1 %127, label %129, label %128

128:                                              ; preds = %124
  store i32 9, ptr %41, align 4
  call void @llvm.lifetime.end.p0(i64 4, ptr %42) #6
  br label %177

129:                                              ; preds = %124
  %130 = load i32, ptr %40, align 4, !tbaa !27
  %131 = sext i32 %130 to i64
  %132 = getelementptr inbounds [6 x float], ptr %32, i64 0, i64 %131
  %133 = load float, ptr %132, align 4, !tbaa !9
  %134 = load i32, ptr %42, align 4, !tbaa !27
  %135 = sext i32 %134 to i64
  %136 = getelementptr inbounds [6 x float], ptr %32, i64 0, i64 %135
  %137 = load float, ptr %136, align 4, !tbaa !9
  %138 = load ptr, ptr %28, align 8, !tbaa !15
  %139 = load i32, ptr %39, align 4, !tbaa !27
  %140 = sext i32 %139 to i64
  %141 = getelementptr inbounds float, ptr %138, i64 %140
  %142 = load float, ptr %141, align 4, !tbaa !9
  %143 = call float @llvm.fmuladd.f32(float %133, float %137, float %142)
  store float %143, ptr %141, align 4, !tbaa !9
  %144 = load i32, ptr %40, align 4, !tbaa !27
  %145 = sext i32 %144 to i64
  %146 = getelementptr inbounds [6 x float], ptr %33, i64 0, i64 %145
  %147 = load float, ptr %146, align 4, !tbaa !9
  %148 = load i32, ptr %42, align 4, !tbaa !27
  %149 = sext i32 %148 to i64
  %150 = getelementptr inbounds [6 x float], ptr %33, i64 0, i64 %149
  %151 = load float, ptr %150, align 4, !tbaa !9
  %152 = load ptr, ptr %28, align 8, !tbaa !15
  %153 = load i32, ptr %39, align 4, !tbaa !27
  %154 = sext i32 %153 to i64
  %155 = getelementptr inbounds float, ptr %152, i64 %154
  %156 = load float, ptr %155, align 4, !tbaa !9
  %157 = call float @llvm.fmuladd.f32(float %147, float %151, float %156)
  store float %157, ptr %155, align 4, !tbaa !9
  %158 = load i32, ptr %40, align 4, !tbaa !27
  %159 = sext i32 %158 to i64
  %160 = getelementptr inbounds [6 x float], ptr %34, i64 0, i64 %159
  %161 = load float, ptr %160, align 4, !tbaa !9
  %162 = load i32, ptr %42, align 4, !tbaa !27
  %163 = sext i32 %162 to i64
  %164 = getelementptr inbounds [6 x float], ptr %34, i64 0, i64 %163
  %165 = load float, ptr %164, align 4, !tbaa !9
  %166 = load ptr, ptr %28, align 8, !tbaa !15
  %167 = load i32, ptr %39, align 4, !tbaa !27
  %168 = sext i32 %167 to i64
  %169 = getelementptr inbounds float, ptr %166, i64 %168
  %170 = load float, ptr %169, align 4, !tbaa !9
  %171 = call float @llvm.fmuladd.f32(float %161, float %165, float %170)
  store float %171, ptr %169, align 4, !tbaa !9
  %172 = load i32, ptr %39, align 4, !tbaa !27
  %173 = add nsw i32 %172, 1
  store i32 %173, ptr %39, align 4, !tbaa !27
  br label %174

174:                                              ; preds = %129
  %175 = load i32, ptr %42, align 4, !tbaa !27
  %176 = add nsw i32 %175, 1
  store i32 %176, ptr %42, align 4, !tbaa !27
  br label %124, !llvm.loop !72

177:                                              ; preds = %128
  br label %178

178:                                              ; preds = %177
  %179 = load i32, ptr %40, align 4, !tbaa !27
  %180 = add nsw i32 %179, 1
  store i32 %180, ptr %40, align 4, !tbaa !27
  br label %119, !llvm.loop !73

181:                                              ; preds = %122
  br label %182

182:                                              ; preds = %181, %114
  call void @llvm.lifetime.end.p0(i64 1, ptr %38) #6
  call void @llvm.lifetime.end.p0(i64 4, ptr %37) #6
  call void @llvm.lifetime.end.p0(i64 4, ptr %36) #6
  call void @llvm.lifetime.end.p0(i64 4, ptr %35) #6
  call void @llvm.lifetime.end.p0(i64 24, ptr %34) #6
  call void @llvm.lifetime.end.p0(i64 24, ptr %33) #6
  call void @llvm.lifetime.end.p0(i64 24, ptr %32) #6
  call void @llvm.lifetime.end.p0(i64 4, ptr %31) #6
  call void @llvm.lifetime.end.p0(i64 4, ptr %30) #6
  br label %183

183:                                              ; preds = %182
  br label %184

184:                                              ; preds = %183
  %185 = load i32, ptr %19, align 4, !tbaa !27
  %186 = add nsw i32 %185, 1
  store i32 %186, ptr %19, align 4, !tbaa !27
  br label %88

187:                                              ; preds = %92
  br label %188

188:                                              ; preds = %187
  %189 = load ptr, ptr %10, align 8
  %190 = load i32, ptr %189, align 4, !tbaa !27
  call void @__kmpc_for_static_fini(ptr @1, i32 %190)
  %191 = getelementptr inbounds [1 x ptr], ptr %43, i64 0, i64 0
  store ptr %27, ptr %191, align 8
  %192 = load ptr, ptr %10, align 8
  %193 = load i32, ptr %192, align 4, !tbaa !27
  %194 = call i32 @__kmpc_reduce_nowait(ptr @2, i32 %193, i32 1, i64 8, ptr %43, ptr @_ZN6open3d1t9pipelines6kernel8odometry35ComputeOdometryInformationMatrixCPUERKNS_4core6TensorES7_S7_S7_fRS5_.omp_outlined.omp.reduction.reduction_func, ptr @.gomp_critical_user_.reduction.var)
  switch i32 %194, label %220 [
    i32 1, label %195
    i32 2, label %208
  ]

195:                                              ; preds = %188
  %196 = getelementptr float, ptr %61, i64 21
  %197 = icmp eq ptr %61, %196
  br i1 %197, label %207, label %198

198:                                              ; preds = %198, %195
  %199 = phi ptr [ %27, %195 ], [ %205, %198 ]
  %200 = phi ptr [ %61, %195 ], [ %204, %198 ]
  %201 = load float, ptr %200, align 4, !tbaa !9
  %202 = load float, ptr %199, align 4, !tbaa !9
  %203 = fadd float %201, %202
  store float %203, ptr %200, align 4, !tbaa !9
  %204 = getelementptr float, ptr %200, i32 1
  %205 = getelementptr float, ptr %199, i32 1
  %206 = icmp eq ptr %204, %196
  br i1 %206, label %207, label %198

207:                                              ; preds = %198, %195
  call void @__kmpc_end_reduce_nowait(ptr @2, i32 %193, ptr @.gomp_critical_user_.reduction.var)
  br label %220

208:                                              ; preds = %188
  %209 = getelementptr float, ptr %61, i64 21
  %210 = icmp eq ptr %61, %209
  br i1 %210, label %219, label %211

211:                                              ; preds = %211, %208
  %212 = phi ptr [ %27, %208 ], [ %217, %211 ]
  %213 = phi ptr [ %61, %208 ], [ %216, %211 ]
  %214 = load float, ptr %212, align 4, !tbaa !9
  %215 = atomicrmw fadd ptr %213, float %214 monotonic, align 4
  %216 = getelementptr float, ptr %213, i32 1
  %217 = getelementptr float, ptr %212, i32 1
  %218 = icmp eq ptr %216, %209
  br i1 %218, label %219, label %211

219:                                              ; preds = %211, %208
  br label %220

220:                                              ; preds = %219, %207, %188
  call void @llvm.lifetime.end.p0(i64 4, ptr %29) #6
  call void @llvm.lifetime.end.p0(i64 84, ptr %27) #6
  call void @llvm.lifetime.end.p0(i64 4, ptr %26) #6
  call void @llvm.lifetime.end.p0(i64 4, ptr %25) #6
  call void @llvm.lifetime.end.p0(i64 4, ptr %24) #6
  call void @llvm.lifetime.end.p0(i64 4, ptr %23) #6
  br label %221

221:                                              ; preds = %220, %9
  call void @llvm.lifetime.end.p0(i64 4, ptr %21) #6
  call void @llvm.lifetime.end.p0(i64 8, ptr %20) #6
  call void @llvm.lifetime.end.p0(i64 4, ptr %19) #6
  ret void

222:                                              ; preds = %93
  %223 = landingpad { ptr, i32 }
          catch ptr null
  %224 = extractvalue { ptr, i32 } %223, 0
  call void @__clang_call_terminate(ptr %224) #32
  unreachable
}