; Function Attrs: alwaysinline norecurse nounwind ssp uwtable
define internal void @_ZN6open3d1t9pipelines6kernel8odometry35ComputeOdometryInformationMatrixCPUERKNS_4core6TensorES7_S7_S7_fRS5_.omp_outlined(ptr noalias noundef readonly captures(none) %0, ptr noalias readnone captures(none) %1, ptr noundef nonnull readonly align 8 captures(none) dereferenceable(8) %2, ptr noundef nonnull readonly align 8 captures(none) dereferenceable(8) %3, ptr noundef nonnull readonly align 4 captures(none) dereferenceable(4) %4, ptr noundef nonnull align 8 dereferenceable(56) %5, ptr noundef nonnull align 8 dereferenceable(56) %6, ptr noundef nonnull align 4 dereferenceable(68) %7, ptr noundef captures(address) %8) #2 personality ptr @__gxx_personality_v0 {
  %10 = alloca i32, align 4
  %11 = alloca i32, align 4
  %12 = alloca i32, align 4
  %13 = alloca i32, align 4
  %14 = alloca [21 x float], align 16
  %15 = alloca [6 x float], align 16
  %16 = alloca [6 x float], align 16
  %17 = alloca [6 x float], align 16
  %18 = alloca float, align 4
  %19 = alloca float, align 4
  %20 = alloca float, align 4
  %21 = alloca [1 x ptr], align 8
  %22 = load i64, ptr %2, align 8, !tbaa !22
  %23 = icmp sgt i64 %22, 0
  br i1 %23, label %24, label %85

24:                                               ; preds = %9
  %25 = trunc i64 %22 to i32
  %26 = add nsw i32 %25, -1
  call void @llvm.lifetime.start.p0(i64 4, ptr nonnull %10) #3
  store i32 0, ptr %10, align 4, !tbaa !18
  call void @llvm.lifetime.start.p0(i64 4, ptr nonnull %11) #3
  store i32 %26, ptr %11, align 4, !tbaa !18
  call void @llvm.lifetime.start.p0(i64 4, ptr nonnull %12) #3
  store i32 1, ptr %12, align 4, !tbaa !18
  call void @llvm.lifetime.start.p0(i64 4, ptr nonnull %13) #3
  store i32 0, ptr %13, align 4, !tbaa !18
  call void @llvm.lifetime.start.p0(i64 84, ptr nonnull %14) #3
  call void @llvm.memset.p0.i64(ptr noundef nonnull align 16 dereferenceable(84) %14, i8 0, i64 84, i1 false), !tbaa !4
  %27 = load i32, ptr %0, align 4, !tbaa !18
  call void @__kmpc_for_static_init_4(ptr nonnull @1, i32 %27, i32 34, ptr nonnull %13, ptr nonnull %10, ptr nonnull %11, ptr nonnull %12, i32 1, i32 1)
  %28 = load i32, ptr %11, align 4, !tbaa !18
  %29 = call i32 @llvm.smin.i32(i32 %28, i32 %26)
  store i32 %29, ptr %11, align 4, !tbaa !18
  %30 = load i32, ptr %10, align 4, !tbaa !18
  %.not51 = icmp sgt i32 %30, %29
  br i1 %.not51, label %._crit_edge, label %.lr.ph.preheader

.lr.ph.preheader:                                 ; preds = %24
  %31 = sext i32 %30 to i64
  br label %.lr.ph

.lr.ph:                                           ; preds = %.lr.ph.preheader, %.loopexit46
  %indvars.iv68 = phi i64 [ %31, %.lr.ph.preheader ], [ %indvars.iv.next69, %.loopexit46 ]
  %32 = load i64, ptr %3, align 8, !tbaa !22
  %33 = sdiv i64 %indvars.iv68, %32
  %34 = trunc i64 %33 to i32
  %35 = srem i64 %indvars.iv68, %32
  %36 = trunc nsw i64 %35 to i32
  call void @llvm.lifetime.start.p0(i64 24, ptr nonnull %15) #3
  call void @llvm.lifetime.start.p0(i64 24, ptr nonnull %16) #3
  call void @llvm.lifetime.start.p0(i64 24, ptr nonnull %17) #3
  call void @llvm.lifetime.start.p0(i64 4, ptr nonnull %18) #3
  call void @llvm.lifetime.start.p0(i64 4, ptr nonnull %19) #3
  call void @llvm.lifetime.start.p0(i64 4, ptr nonnull %20) #3
  %37 = load float, ptr %4, align 4, !tbaa !4
  %38 = invoke noundef zeroext i1 @_ZN6open3d1t9pipelines6kernel8odometry23GetJacobianPointToPointEiifRKNS0_8geometry6kernel13TArrayIndexerIlEES9_RKNS5_16TransformIndexerEPfSD_SD_RfSE_SE_(i32 noundef %36, i32 noundef %34, float noundef %37, ptr noundef nonnull align 8 dereferenceable(56) %5, ptr noundef nonnull align 8 dereferenceable(56) %6, ptr noundef nonnull align 4 dereferenceable(68) %7, ptr noundef nonnull %15, ptr noundef nonnull %16, ptr noundef nonnull %17, ptr noundef nonnull align 4 dereferenceable(4) %18, ptr noundef nonnull align 4 dereferenceable(4) %19, ptr noundef nonnull align 4 dereferenceable(4) %20)
          to label %39 unwind label %86

39:                                               ; preds = %.lr.ph
  br i1 %38, label %.preheader, label %.loopexit46

.preheader:                                       ; preds = %39, %47
  %indvars.iv62 = phi i64 [ %indvars.iv.next63, %47 ], [ 0, %39 ]
  %indvars.iv60 = phi i64 [ %indvars.iv.next61, %47 ], [ 1, %39 ]
  %.04249 = phi i64 [ %indvars.iv.next54, %47 ], [ 0, %39 ]
  %40 = getelementptr inbounds nuw [6 x float], ptr %15, i64 0, i64 %indvars.iv62
  %41 = load float, ptr %40, align 4, !tbaa !4
  %42 = getelementptr inbounds nuw [6 x float], ptr %16, i64 0, i64 %indvars.iv62
  %43 = load float, ptr %42, align 4, !tbaa !4
  %44 = getelementptr inbounds nuw [6 x float], ptr %17, i64 0, i64 %indvars.iv62
  %45 = load float, ptr %44, align 4, !tbaa !4
  %sext = shl i64 %.04249, 32
  %46 = ashr exact i64 %sext, 32
  br label %48

47:                                               ; preds = %48
  %indvars.iv.next63 = add nuw nsw i64 %indvars.iv62, 1
  %indvars.iv.next61 = add nuw nsw i64 %indvars.iv60, 1
  %exitcond67.not = icmp eq i64 %indvars.iv.next63, 6
  br i1 %exitcond67.not, label %.loopexit46, label %.preheader, !llvm.loop !82

48:                                               ; preds = %.preheader, %48
  %indvars.iv53 = phi i64 [ %46, %.preheader ], [ %indvars.iv.next54, %48 ]
  %indvars.iv = phi i64 [ 0, %.preheader ], [ %indvars.iv.next, %48 ]
  %49 = getelementptr inbounds nuw [6 x float], ptr %15, i64 0, i64 %indvars.iv
  %50 = load float, ptr %49, align 4, !tbaa !4
  %51 = getelementptr inbounds float, ptr %14, i64 %indvars.iv53
  %52 = load float, ptr %51, align 4, !tbaa !4
  %53 = call float @llvm.fmuladd.f32(float %41, float %50, float %52)
  %54 = getelementptr inbounds nuw [6 x float], ptr %16, i64 0, i64 %indvars.iv
  %55 = load float, ptr %54, align 4, !tbaa !4
  %56 = call float @llvm.fmuladd.f32(float %43, float %55, float %53)
  %57 = getelementptr inbounds nuw [6 x float], ptr %17, i64 0, i64 %indvars.iv
  %58 = load float, ptr %57, align 4, !tbaa !4
  %59 = call float @llvm.fmuladd.f32(float %45, float %58, float %56)
  store float %59, ptr %51, align 4, !tbaa !4
  %indvars.iv.next54 = add nsw i64 %indvars.iv53, 1
  %indvars.iv.next = add nuw nsw i64 %indvars.iv, 1
  %exitcond.not = icmp eq i64 %indvars.iv.next, %indvars.iv60
  br i1 %exitcond.not, label %47, label %48, !llvm.loop !83

.loopexit46:                                      ; preds = %47, %39
  call void @llvm.lifetime.end.p0(i64 4, ptr nonnull %20) #3
  call void @llvm.lifetime.end.p0(i64 4, ptr nonnull %19) #3
  call void @llvm.lifetime.end.p0(i64 4, ptr nonnull %18) #3
  call void @llvm.lifetime.end.p0(i64 24, ptr nonnull %17) #3
  call void @llvm.lifetime.end.p0(i64 24, ptr nonnull %16) #3
  call void @llvm.lifetime.end.p0(i64 24, ptr nonnull %15) #3
  %indvars.iv.next69 = add nsw i64 %indvars.iv68, 1
  %60 = load i32, ptr %11, align 4, !tbaa !18
  %61 = sext i32 %60 to i64
  %.not.not = icmp slt i64 %indvars.iv68, %61
  br i1 %.not.not, label %.lr.ph, label %._crit_edge

._crit_edge:                                      ; preds = %.loopexit46, %24
  call void @__kmpc_for_static_fini(ptr nonnull @1, i32 %27)
  store ptr %14, ptr %21, align 8
  %62 = call i32 @__kmpc_reduce_nowait(ptr nonnull @2, i32 %27, i32 1, i64 8, ptr nonnull %21, ptr nonnull @_ZN6open3d1t9pipelines6kernel8odometry35ComputeOdometryInformationMatrixCPUERKNS_4core6TensorES7_S7_S7_fRS5_.omp_outlined.omp.reduction.reduction_func, ptr nonnull @.gomp_critical_user_.reduction.var)
  switch i32 %62, label %.loopexit [
    i32 1, label %63
    i32 2, label %75
  ]

63:                                               ; preds = %._crit_edge
  %64 = getelementptr i8, ptr %8, i64 84
  br label %65

65:                                               ; preds = %63, %65
  %66 = phi ptr [ %14, %63 ], [ %72, %65 ]
  %67 = phi ptr [ %8, %63 ], [ %71, %65 ]
  %68 = load float, ptr %67, align 4, !tbaa !4
  %69 = load float, ptr %66, align 4, !tbaa !4
  %70 = fadd float %68, %69
  store float %70, ptr %67, align 4, !tbaa !4
  %71 = getelementptr i8, ptr %67, i64 4
  %72 = getelementptr i8, ptr %66, i64 4
  %73 = icmp eq ptr %71, %64
  br i1 %73, label %74, label %65

74:                                               ; preds = %65
  call void @__kmpc_end_reduce_nowait(ptr nonnull @2, i32 %27, ptr nonnull @.gomp_critical_user_.reduction.var)
  br label %.loopexit

75:                                               ; preds = %._crit_edge
  %76 = getelementptr i8, ptr %8, i64 84
  br label %77

77:                                               ; preds = %75, %77
  %78 = phi ptr [ %14, %75 ], [ %83, %77 ]
  %79 = phi ptr [ %8, %75 ], [ %82, %77 ]
  %80 = load float, ptr %78, align 4, !tbaa !4
  %81 = atomicrmw fadd ptr %79, float %80 monotonic, align 4
  %82 = getelementptr i8, ptr %79, i64 4
  %83 = getelementptr i8, ptr %78, i64 4
  %84 = icmp eq ptr %82, %76
  br i1 %84, label %.loopexit, label %77

.loopexit:                                        ; preds = %77, %74, %._crit_edge
  call void @llvm.lifetime.end.p0(i64 84, ptr nonnull %14) #3
  call void @llvm.lifetime.end.p0(i64 4, ptr nonnull %13) #3
  call void @llvm.lifetime.end.p0(i64 4, ptr nonnull %12) #3
  call void @llvm.lifetime.end.p0(i64 4, ptr nonnull %11) #3
  call void @llvm.lifetime.end.p0(i64 4, ptr nonnull %10) #3
  br label %85

85:                                               ; preds = %.loopexit, %9
  ret void

86:                                               ; preds = %.lr.ph
  %87 = landingpad { ptr, i32 }
          catch ptr null
  %88 = extractvalue { ptr, i32 } %87, 0
  call void @__clang_call_terminate(ptr %88) #36
  unreachable
}